; Function Attrs: inlinehint mustprogress nofree nounwind willreturn memory(argmem: read) uwtable
define internal fastcc range(i32 0, 2) i32 @ossl_quic_conn_id_eq(ptr noundef nonnull readonly captures(none) %0, ptr noundef readonly captures(none) %1) unnamed_addr #4 {
  %3 = load i8, ptr %0, align 1, !tbaa !13
  %4 = load i8, ptr %1, align 1, !tbaa !13
  %.not = icmp ne i8 %3, %4
  %5 = icmp ugt i8 %3, 20
  %or.cond = or i1 %5, %.not
  br i1 %or.cond, label %12, label %6

6:                                                ; preds = %2
  %7 = getelementptr inbounds nuw i8, ptr %0, i64 1
  %8 = getelementptr inbounds nuw i8, ptr %1, i64 1
  %9 = zext nneg i8 %3 to i64
  %bcmp = tail call i32 @bcmp(ptr nonnull %7, ptr nonnull %8, i64 %9)
  %10 = icmp eq i32 %bcmp, 0
  %11 = zext i1 %10 to i32
  br label %12

12:                                               ; preds = %2, %6
  %.0 = phi i32 [ %11, %6 ], [ 0, %2 ]
  ret i32 %.0
}